target datalayout = "e-m:e-p270:32:32-p271:32:32-p272:64:64-i64:64-i128:128-f80:128-n8:16:32:64-S128"
target triple = "x86_64-pc-linux-gnu"

%struct.H5VL_loc_params_t = type { i32, i32, %union.anon }
%union.anon = type { %struct.H5VL_loc_by_idx }
%struct.H5VL_loc_by_idx = type { ptr, i32, i32, i64, i64 }
%struct.H5VL_object_get_args_t = type { i32, %union.anon.0 }
%union.anon.0 = type { %struct.anon.1 }
%struct.anon.1 = type { i64, ptr, ptr }
%struct.H5O_info2_t = type { i64, %struct.H5O_token_t, i32, i32, i64, i64, i64, i64, i64 }
%struct.H5O_token_t = type { [16 x i8] }
%struct.anon.3 = type { i32, ptr }

@H5_libinit_g = external global i8, align 1
@H5_libterm_g = external global i8, align 1
@.str = private unnamed_addr constant [103 x i8] c"generated/home/dtcxzyw/WorkSpace/Projects/compilers/llvm-opt-benchmark/bench/hdf5/hdf5/src/H5Adeprec.c\00", align 1
@H5E_FUNC_g = external global i64, align 8
@H5E_CANTINIT_g = external global i64, align 8
@.str.1 = private unnamed_addr constant [30 x i8] c"library initialization failed\00", align 1
@H5E_CANTSET_g = external global i64, align 8
@.str.2 = private unnamed_addr constant [22 x i8] c"can't set API context\00", align 1
@H5E_ARGS_g = external global i64, align 8
@H5E_BADTYPE_g = external global i64, align 8
@H5E_ATTR_g = external global i64, align 8
@.str.6 = private unnamed_addr constant [28 x i8] c"invalid location identifier\00", align 1
@H5P_LST_DATASET_XFER_ID_g = external global i64, align 8
@__func__.H5Aget_num_attrs = private unnamed_addr constant [17 x i8] c"H5Aget_num_attrs\00", align 1
@H5E_CANTGET_g = external global i64, align 8
@.str.13 = private unnamed_addr constant [41 x i8] c"unable to get attribute count for object\00", align 1

; Function Attrs: nounwind uwtable
define i32 @H5Aget_num_attrs(i64 noundef %0) #0 {
  %2 = alloca i64, align 8
  %3 = alloca ptr, align 8
  %4 = alloca %struct.H5VL_object_get_args_t, align 8
  %5 = alloca %struct.H5VL_loc_params_t, align 8
  %6 = alloca %struct.H5O_info2_t, align 8
  %7 = alloca i32, align 4
  %8 = alloca i8, align 1
  %9 = alloca i8, align 1
  store i64 %0, ptr %2, align 8
  store ptr null, ptr %3, align 8
  store i32 -1, ptr %7, align 4
  store i8 0, ptr %8, align 1
  store i8 0, ptr %9, align 1
  %10 = load i8, ptr @H5_libinit_g, align 1
  %11 = trunc i8 %10 to i1
  br i1 %11, label %16, label %12

12:                                               ; preds = %1
  %13 = load i8, ptr @H5_libterm_g, align 1
  %14 = trunc i8 %13 to i1
  %15 = xor i1 %14, true
  br label %16

16:                                               ; preds = %12, %1
  %17 = phi i1 [ false, %1 ], [ %15, %12 ]
  %18 = xor i1 %17, true
  %19 = xor i1 %18, true
  %20 = zext i1 %19 to i32
  %21 = sext i32 %20 to i64
  %22 = icmp ne i64 %21, 0
  br i1 %22, label %23, label %47

23:                                               ; preds = %16
  %24 = call i32 @H5_init_library()
  %25 = icmp slt i32 %24, 0
  %26 = xor i1 %25, true
  %27 = xor i1 %26, true
  %28 = zext i1 %27 to i32
  %29 = sext i32 %28 to i64
  %30 = icmp ne i64 %29, 0
  br i1 %30, label %31, label %46

31:                                               ; preds = %23
  br label %32

32:                                               ; preds = %31
  br label %33

33:                                               ; preds = %32
  br label %34

34:                                               ; preds = %33
  %35 = load i64, ptr @H5E_FUNC_g, align 8
  %36 = load i64, ptr @H5E_CANTINIT_g, align 8
  %37 = call i32 (ptr, ptr, i32, i64, i64, ptr, ...) @H5E_printf_stack(ptr noundef @.str, ptr noundef @__func__.H5Aget_num_attrs, i32 noundef 311, i64 noundef %35, i64 noundef %36, ptr noundef @.str.1)
  br label %38

38:                                               ; preds = %34
  store i8 1, ptr %9, align 1
  %39 = load i8, ptr %9, align 1
  %40 = trunc i8 %39 to i1
  %41 = zext i1 %40 to i8
  store i8 %41, ptr %9, align 1
  br label %42

42:                                               ; preds = %38
  br label %43

43:                                               ; preds = %42
  store i32 -1, ptr %7, align 4
  br label %126

44:                                               ; No predecessors!
  br label %45

45:                                               ; preds = %44
  br label %46

46:                                               ; preds = %45, %23
  br label %47

47:                                               ; preds = %46, %16
  %48 = call i32 @H5CX_push()
  %49 = icmp slt i32 %48, 0
  %50 = xor i1 %49, true
  %51 = xor i1 %50, true
  %52 = zext i1 %51 to i32
  %53 = sext i32 %52 to i64
  %54 = icmp ne i64 %53, 0
  br i1 %54, label %55, label %70

55:                                               ; preds = %47
  br label %56

56:                                               ; preds = %55
  br label %57

57:                                               ; preds = %56
  br label %58

58:                                               ; preds = %57
  %59 = load i64, ptr @H5E_FUNC_g, align 8
  %60 = load i64, ptr @H5E_CANTSET_g, align 8
  %61 = call i32 (ptr, ptr, i32, i64, i64, ptr, ...) @H5E_printf_stack(ptr noundef @.str, ptr noundef @__func__.H5Aget_num_attrs, i32 noundef 311, i64 noundef %59, i64 noundef %60, ptr noundef @.str.2)
  br label %62

62:                                               ; preds = %58
  store i8 1, ptr %9, align 1
  %63 = load i8, ptr %9, align 1
  %64 = trunc i8 %63 to i1
  %65 = zext i1 %64 to i8
  store i8 %65, ptr %9, align 1
  br label %66

66:                                               ; preds = %62
  br label %67

67:                                               ; preds = %66
  store i32 -1, ptr %7, align 4
  br label %126

68:                                               ; No predecessors!
  br label %69

69:                                               ; preds = %68
  br label %71

70:                                               ; preds = %47
  store i8 1, ptr %8, align 1
  br label %71

71:                                               ; preds = %70, %69
  %72 = call i32 @H5E_clear_stack()
  %73 = getelementptr inbounds %struct.H5VL_loc_params_t, ptr %5, i32 0, i32 1
  store i32 0, ptr %73, align 4
  %74 = load i64, ptr %2, align 8
  %75 = call i32 @H5I_get_type(i64 noundef %74)
  %76 = getelementptr inbounds %struct.H5VL_loc_params_t, ptr %5, i32 0, i32 0
  store i32 %75, ptr %76, align 8
  %77 = load i64, ptr %2, align 8
  %78 = call ptr @H5VL_vol_object(i64 noundef %77)
  store ptr %78, ptr %3, align 8
  %79 = icmp eq ptr null, %78
  br i1 %79, label %80, label %95

80:                                               ; preds = %71
  br label %81

81:                                               ; preds = %80
  br label %82

82:                                               ; preds = %81
  br label %83

83:                                               ; preds = %82
  %84 = load i64, ptr @H5E_ARGS_g, align 8
  %85 = load i64, ptr @H5E_BADTYPE_g, align 8
  %86 = call i32 (ptr, ptr, i32, i64, i64, ptr, ...) @H5E_printf_stack(ptr noundef @.str, ptr noundef @__func__.H5Aget_num_attrs, i32 noundef 318, i64 noundef %84, i64 noundef %85, ptr noundef @.str.6)
  br label %87

87:                                               ; preds = %83
  store i8 1, ptr %9, align 1
  %88 = load i8, ptr %9, align 1
  %89 = trunc i8 %88 to i1
  %90 = zext i1 %89 to i8
  store i8 %90, ptr %9, align 1
  br label %91

91:                                               ; preds = %87
  br label %92

92:                                               ; preds = %91
  store i32 -1, ptr %7, align 4
  br label %126

93:                                               ; No predecessors!
  br label %94

94:                                               ; preds = %93
  br label %95

95:                                               ; preds = %94, %71
  %96 = getelementptr inbounds %struct.H5VL_object_get_args_t, ptr %4, i32 0, i32 0
  store i32 3, ptr %96, align 8
  %97 = getelementptr inbounds %struct.H5VL_object_get_args_t, ptr %4, i32 0, i32 1
  %98 = getelementptr inbounds %struct.anon.3, ptr %97, i32 0, i32 1
  store ptr %6, ptr %98, align 8
  %99 = getelementptr inbounds %struct.H5VL_object_get_args_t, ptr %4, i32 0, i32 1
  %100 = getelementptr inbounds %struct.anon.3, ptr %99, i32 0, i32 0
  store i32 4, ptr %100, align 8
  %101 = load ptr, ptr %3, align 8
  %102 = load i64, ptr @H5P_LST_DATASET_XFER_ID_g, align 8
  %103 = call i32 @H5VL_object_get(ptr noundef %101, ptr noundef %5, ptr noundef %4, i64 noundef %102, ptr noundef null)
  %104 = icmp slt i32 %103, 0
  br i1 %104, label %105, label %120

105:                                              ; preds = %95
  br label %106

106:                                              ; preds = %105
  br label %107

107:                                              ; preds = %106
  br label %108

108:                                              ; preds = %107
  %109 = load i64, ptr @H5E_ATTR_g, align 8
  %110 = load i64, ptr @H5E_CANTGET_g, align 8
  %111 = call i32 (ptr, ptr, i32, i64, i64, ptr, ...) @H5E_printf_stack(ptr noundef @.str, ptr noundef @__func__.H5Aget_num_attrs, i32 noundef 327, i64 noundef %109, i64 noundef %110, ptr noundef @.str.13)
  br label %112

112:                                              ; preds = %108
  store i8 1, ptr %9, align 1
  %113 = load i8, ptr %9, align 1
  %114 = trunc i8 %113 to i1
  %115 = zext i1 %114 to i8
  store i8 %115, ptr %9, align 1
  br label %116

116:                                              ; preds = %112
  br label %117

117:                                              ; preds = %116
  store i32 -1, ptr %7, align 4
  br label %126

118:                                              ; No predecessors!
  br label %119

119:                                              ; preds = %118
  br label %120

120:                                              ; preds = %119, %95
  br label %121

121:                                              ; preds = %120
  %122 = getelementptr inbounds %struct.H5O_info2_t, ptr %6, i32 0, i32 8
  %123 = load i64, ptr %122, align 8
  %124 = trunc i64 %123 to i32
  store i32 %124, ptr %7, align 4
  br label %125

125:                                              ; preds = %121
  br label %126

126:                                              ; preds = %125, %117, %92, %67, %43
  %127 = load i8, ptr %8, align 1
  %128 = trunc i8 %127 to i1
  %129 = xor i1 %128, true
  %130 = xor i1 %129, true
  %131 = zext i1 %130 to i32
  %132 = sext i32 %131 to i64
  %133 = icmp ne i64 %132, 0
  br i1 %133, label %134, label %136

134:                                              ; preds = %126
  %135 = call i32 @H5CX_pop(i1 noundef zeroext true)
  store i8 0, ptr %8, align 1
  br label %136

136:                                              ; preds = %134, %126
  %137 = load i8, ptr %9, align 1
  %138 = trunc i8 %137 to i1
  %139 = xor i1 %138, true
  %140 = xor i1 %139, true
  %141 = zext i1 %140 to i32
  %142 = sext i32 %141 to i64
  %143 = icmp ne i64 %142, 0
  br i1 %143, label %144, label %146

144:                                              ; preds = %136
  %145 = call i32 @H5E_dump_api_stack()
  br label %146

146:                                              ; preds = %144, %136
  %147 = load i32, ptr %7, align 4
  ret i32 %147
}