; Function Attrs: nounwind uwtable
define i32 @H5Aget_num_attrs(i64 noundef %0) local_unnamed_addr #0 {
  %2 = alloca %struct.H5VL_object_get_args_t, align 8
  %3 = alloca %struct.H5VL_loc_params_t, align 8
  %4 = alloca %struct.H5O_info2_t, align 8
  %5 = load i8, ptr @H5_libinit_g, align 1
  %6 = trunc i8 %5 to i1
  %7 = load i8, ptr @H5_libterm_g, align 1
  %8 = trunc i8 %7 to i1
  %9 = select i1 %6, i1 true, i1 %8
  br i1 %9, label %17, label %10

10:                                               ; preds = %1
  %11 = tail call i32 @H5_init_library() #2
  %12 = icmp slt i32 %11, 0
  br i1 %12, label %13, label %17

13:                                               ; preds = %10
  %14 = load i64, ptr @H5E_FUNC_g, align 8
  %15 = load i64, ptr @H5E_CANTINIT_g, align 8
  %16 = tail call i32 (ptr, ptr, i32, i64, i64, ptr, ...) @H5E_printf_stack(ptr noundef nonnull @.str, ptr noundef nonnull @__func__.H5Aget_num_attrs, i32 noundef 311, i64 noundef %14, i64 noundef %15, ptr noundef nonnull @.str.1) #2
  br label %.thread20

17:                                               ; preds = %10, %1
  %18 = tail call i32 @H5CX_push() #2
  %19 = icmp slt i32 %18, 0
  br i1 %19, label %20, label %24

20:                                               ; preds = %17
  %21 = load i64, ptr @H5E_FUNC_g, align 8
  %22 = load i64, ptr @H5E_CANTSET_g, align 8
  %23 = tail call i32 (ptr, ptr, i32, i64, i64, ptr, ...) @H5E_printf_stack(ptr noundef nonnull @.str, ptr noundef nonnull @__func__.H5Aget_num_attrs, i32 noundef 311, i64 noundef %21, i64 noundef %22, ptr noundef nonnull @.str.2) #2
  br label %.thread20

24:                                               ; preds = %17
  %25 = tail call i32 @H5E_clear_stack() #2
  %26 = getelementptr inbounds i8, ptr %3, i64 4
  store i32 0, ptr %26, align 4
  %27 = tail call i32 @H5I_get_type(i64 noundef %0) #2
  store i32 %27, ptr %3, align 8
  %28 = tail call ptr @H5VL_vol_object(i64 noundef %0) #2
  %29 = icmp eq ptr %28, null
  br i1 %29, label %30, label %34

30:                                               ; preds = %24
  %31 = load i64, ptr @H5E_ARGS_g, align 8
  %32 = load i64, ptr @H5E_BADTYPE_g, align 8
  %33 = tail call i32 (ptr, ptr, i32, i64, i64, ptr, ...) @H5E_printf_stack(ptr noundef nonnull @.str, ptr noundef nonnull @__func__.H5Aget_num_attrs, i32 noundef 318, i64 noundef %31, i64 noundef %32, ptr noundef nonnull @.str.6) #2
  br label %.thread26

34:                                               ; preds = %24
  store i32 3, ptr %2, align 8
  %35 = getelementptr inbounds i8, ptr %2, i64 8
  %36 = getelementptr inbounds i8, ptr %2, i64 16
  store ptr %4, ptr %36, align 8
  store i32 4, ptr %35, align 8
  %37 = load i64, ptr @H5P_LST_DATASET_XFER_ID_g, align 8
  %38 = call i32 @H5VL_object_get(ptr noundef nonnull %28, ptr noundef nonnull %3, ptr noundef nonnull %2, i64 noundef %37, ptr noundef null) #2
  %39 = icmp slt i32 %38, 0
  br i1 %39, label %40, label %45

40:                                               ; preds = %34
  %41 = load i64, ptr @H5E_ATTR_g, align 8
  %42 = load i64, ptr @H5E_CANTGET_g, align 8
  %43 = call i32 (ptr, ptr, i32, i64, i64, ptr, ...) @H5E_printf_stack(ptr noundef nonnull @.str, ptr noundef nonnull @__func__.H5Aget_num_attrs, i32 noundef 327, i64 noundef %41, i64 noundef %42, ptr noundef nonnull @.str.13) #2
  br label %.thread26

.thread26:                                        ; preds = %40, %30
  %44 = call i32 @H5CX_pop(i1 noundef zeroext true) #2
  br label %.thread20

45:                                               ; preds = %34
  %46 = getelementptr inbounds i8, ptr %4, i64 64
  %47 = load i64, ptr %46, align 8
  %48 = trunc i64 %47 to i32
  %49 = call i32 @H5CX_pop(i1 noundef zeroext true) #2
  br label %51

.thread20:                                        ; preds = %20, %13, %.thread26
  %50 = call i32 @H5E_dump_api_stack() #2
  br label %51

51:                                               ; preds = %45, %.thread20
  %.0101523 = phi i32 [ -1, %.thread20 ], [ %48, %45 ]
  ret i32 %.0101523
}